; Function Attrs: mustprogress uwtable
define internal noundef zeroext i1 @_ZZN3dap6TypeOfINS_11NextRequestEE4typeEvENK2TI9serializeEPNS_10SerializerEPKv(ptr nocapture nonnull readnone align 8 %0, ptr noundef %1, ptr noundef %2) unnamed_addr #0 align 2 personality ptr @__gxx_personality_v0 {
  %4 = alloca ptr, align 8
  %5 = alloca %"class.std::function.261", align 8
  store ptr %2, ptr %4, align 8
  %6 = getelementptr inbounds i8, ptr %5, i64 16
  %7 = getelementptr inbounds i8, ptr %5, i64 24
  %8 = getelementptr inbounds i8, ptr %5, i64 8
  store i64 0, ptr %8, align 8
  %9 = ptrtoint ptr %4 to i64
  store i64 %9, ptr %5, align 8
  store ptr @_ZNSt17_Function_handlerIFbPN3dap15FieldSerializerEEZZNS0_6TypeOfINS0_11NextRequestEE4typeEvENK2TI9serializeEPNS0_10SerializerEPKvEUlS2_E_E9_M_invokeERKSt9_Any_dataOS2_, ptr %7, align 8
  store ptr @_ZNSt17_Function_handlerIFbPN3dap15FieldSerializerEEZZNS0_6TypeOfINS0_11NextRequestEE4typeEvENK2TI9serializeEPNS0_10SerializerEPKvEUlS2_E_E10_M_managerERSt9_Any_dataRKSE_St18_Manager_operation, ptr %6, align 8
  %10 = load ptr, ptr %1, align 8
  %11 = getelementptr inbounds i8, ptr %10, i64 72
  %12 = load ptr, ptr %11, align 8
  %13 = invoke noundef zeroext i1 %12(ptr noundef nonnull align 8 dereferenceable(8) %1, ptr noundef nonnull align 8 dereferenceable(32) %5)
          to label %14 unwind label %21

14:                                               ; preds = %3
  %15 = load ptr, ptr %6, align 8
  %.not.i.i = icmp eq ptr %15, null
  br i1 %.not.i.i, label %_ZNSt8functionIFbPN3dap15FieldSerializerEEED2Ev.exit, label %16

16:                                               ; preds = %14
  %17 = invoke noundef zeroext i1 %15(ptr noundef nonnull align 8 dereferenceable(16) %5, ptr noundef nonnull align 8 dereferenceable(16) %5, i32 noundef 3)
          to label %_ZNSt8functionIFbPN3dap15FieldSerializerEEED2Ev.exit unwind label %18

18:                                               ; preds = %16
  %19 = landingpad { ptr, i32 }
          catch ptr null
  %20 = extractvalue { ptr, i32 } %19, 0
  call void @__clang_call_terminate(ptr %20) #19
  unreachable

_ZNSt8functionIFbPN3dap15FieldSerializerEEED2Ev.exit: ; preds = %14, %16
  ret i1 %13

21:                                               ; preds = %3
  %22 = landingpad { ptr, i32 }
          cleanup
  %23 = load ptr, ptr %6, align 8
  %.not.i.i2 = icmp eq ptr %23, null
  br i1 %.not.i.i2, label %_ZNSt8functionIFbPN3dap15FieldSerializerEEED2Ev.exit3, label %24

24:                                               ; preds = %21
  %25 = invoke noundef zeroext i1 %23(ptr noundef nonnull align 8 dereferenceable(16) %5, ptr noundef nonnull align 8 dereferenceable(16) %5, i32 noundef 3)
          to label %_ZNSt8functionIFbPN3dap15FieldSerializerEEED2Ev.exit3 unwind label %26

26:                                               ; preds = %24
  %27 = landingpad { ptr, i32 }
          catch ptr null
  %28 = extractvalue { ptr, i32 } %27, 0
  call void @__clang_call_terminate(ptr %28) #19
  unreachable

_ZNSt8functionIFbPN3dap15FieldSerializerEEED2Ev.exit3: ; preds = %21, %24
  resume { ptr, i32 } %22
}